target datalayout = "e-m:e-p270:32:32-p271:32:32-p272:64:64-i64:64-i128:128-f80:128-n8:16:32:64-S128"
target triple = "x86_64-pc-linux-gnu"

%struct.pmix_tma = type { ptr, ptr, ptr, ptr, ptr, ptr, ptr, ptr }

; Function Attrs: inlinehint nounwind uwtable
define internal void @pmix_bfrops_base_tma_data_buffer_construct(ptr noundef %0, ptr noundef %1) #3 {
  %3 = alloca ptr, align 8
  %4 = alloca ptr, align 8
  store ptr %0, ptr %3, align 8, !tbaa !228
  store ptr %1, ptr %4, align 8, !tbaa !23
  %5 = load ptr, ptr %3, align 8, !tbaa !228
  call void @llvm.memset.p0.i64(ptr align 8 %5, i8 0, i64 40, i1 false)
  ret void
}

; Function Attrs: inlinehint nounwind uwtable
define internal ptr @pmix_tma_malloc(ptr noundef %0, i64 noundef %1) #3 {
  %3 = alloca ptr, align 8
  %4 = alloca ptr, align 8
  %5 = alloca i64, align 8
  store ptr %0, ptr %4, align 8, !tbaa !23
  store i64 %1, ptr %5, align 8, !tbaa !25
  %6 = load ptr, ptr %4, align 8, !tbaa !23
  %7 = icmp ne ptr null, %6
  br i1 %7, label %8, label %15

8:                                                ; preds = %2
  %9 = load ptr, ptr %4, align 8, !tbaa !23
  %10 = getelementptr inbounds nuw %struct.pmix_tma, ptr %9, i32 0, i32 0
  %11 = load ptr, ptr %10, align 8, !tbaa !235
  %12 = load ptr, ptr %4, align 8, !tbaa !23
  %13 = load i64, ptr %5, align 8, !tbaa !25
  %14 = call ptr %11(ptr noundef %12, i64 noundef %13)
  store ptr %14, ptr %3, align 8
  br label %18

15:                                               ; preds = %2
  %16 = load i64, ptr %5, align 8, !tbaa !25
  %17 = call noalias ptr @malloc(i64 noundef %16) #12
  store ptr %17, ptr %3, align 8
  br label %18

18:                                               ; preds = %15, %8
  %19 = load ptr, ptr %3, align 8
  ret ptr %19
}

; Function Attrs: inlinehint nounwind uwtable
define internal ptr @pmix_bfrops_base_tma_data_buffer_create(ptr noundef %0) #3 {
  %2 = alloca ptr, align 8
  %3 = alloca ptr, align 8
  store ptr %0, ptr %2, align 8, !tbaa !23
  call void @llvm.lifetime.start.p0(i64 8, ptr %3) #11
  %4 = load ptr, ptr %2, align 8, !tbaa !23
  %5 = call ptr @pmix_tma_malloc(ptr noundef %4, i64 noundef 40)
  store ptr %5, ptr %3, align 8, !tbaa !228
  %6 = load ptr, ptr %3, align 8, !tbaa !228
  %7 = icmp ne ptr null, %6
  %8 = xor i1 %7, true
  %9 = xor i1 %8, true
  %10 = zext i1 %9 to i32
  %11 = sext i32 %10 to i64
  %12 = call i64 @llvm.expect.i64(i64 %11, i64 1)
  %13 = icmp ne i64 %12, 0
  br i1 %13, label %14, label %17

14:                                               ; preds = %1
  %15 = load ptr, ptr %3, align 8, !tbaa !228
  %16 = load ptr, ptr %2, align 8, !tbaa !23
  call void @pmix_bfrops_base_tma_data_buffer_construct(ptr noundef %15, ptr noundef %16)
  br label %17

17:                                               ; preds = %14, %1
  %18 = load ptr, ptr %3, align 8, !tbaa !228
  call void @llvm.lifetime.end.p0(i64 8, ptr %3) #11
  ret ptr %18
}

; Function Attrs: inlinehint nounwind uwtable
define internal i32 @pmix_bfrops_base_tma_copy_dbuf(ptr noundef %0, ptr noundef %1, i16 noundef zeroext %2, ptr noundef %3) #3 {
  %5 = alloca i32, align 4
  %6 = alloca ptr, align 8
  %7 = alloca ptr, align 8
  %8 = alloca i16, align 2
  %9 = alloca ptr, align 8
  %10 = alloca ptr, align 8
  %11 = alloca i32, align 4
  store ptr %0, ptr %6, align 8, !tbaa !226
  store ptr %1, ptr %7, align 8, !tbaa !228
  store i16 %2, ptr %8, align 2, !tbaa !9
  store ptr %3, ptr %9, align 8, !tbaa !23
  call void @llvm.lifetime.start.p0(i64 8, ptr %10) #11
  %12 = load ptr, ptr %9, align 8, !tbaa !23
  %13 = call ptr @pmix_bfrops_base_tma_data_buffer_create(ptr noundef %12)
  store ptr %13, ptr %10, align 8, !tbaa !228
  %14 = load ptr, ptr %10, align 8, !tbaa !228
  %15 = icmp eq ptr null, %14
  %16 = xor i1 %15, true
  %17 = xor i1 %16, true
  %18 = zext i1 %17 to i32
  %19 = sext i32 %18 to i64
  %20 = call i64 @llvm.expect.i64(i64 %19, i64 0)
  %21 = icmp ne i64 %20, 0
  br i1 %21, label %22, label %23

22:                                               ; preds = %4
  store i32 -32, ptr %5, align 4
  store i32 1, ptr %11, align 4
  br label %29

23:                                               ; preds = %4
  %24 = load ptr, ptr %10, align 8, !tbaa !228
  %25 = load ptr, ptr %6, align 8, !tbaa !226
  store ptr %24, ptr %25, align 8, !tbaa !228
  %26 = load ptr, ptr %10, align 8, !tbaa !228
  %27 = load ptr, ptr %7, align 8, !tbaa !228
  %28 = call i32 @PMIx_Data_copy_payload(ptr noundef %26, ptr noundef %27)
  store i32 %28, ptr %5, align 4
  store i32 1, ptr %11, align 4
  br label %29

29:                                               ; preds = %23, %22
  call void @llvm.lifetime.end.p0(i64 8, ptr %10) #11
  %30 = load i32, ptr %5, align 4
  ret i32 %30
}

; Function Attrs: nounwind uwtable
define i32 @pmix_bfrops_base_copy_dbuf(ptr noundef %0, ptr noundef %1, i16 noundef zeroext %2) #0 {
  %4 = alloca ptr, align 8
  %5 = alloca ptr, align 8
  %6 = alloca i16, align 2
  store ptr %0, ptr %4, align 8, !tbaa !226
  store ptr %1, ptr %5, align 8, !tbaa !228
  store i16 %2, ptr %6, align 2, !tbaa !9
  %7 = load ptr, ptr %4, align 8, !tbaa !226
  %8 = load ptr, ptr %5, align 8, !tbaa !228
  %9 = load i16, ptr %6, align 2, !tbaa !9
  %10 = call i32 @pmix_bfrops_base_tma_copy_dbuf(ptr noundef %7, ptr noundef %8, i16 noundef zeroext %9, ptr noundef null)
  ret i32 %10
}