; Function Attrs: nounwind uwtable
define i32 @pmix_bfrops_base_copy_dbuf(ptr noundef writeonly captures(none) %0, ptr noundef %1, i16 noundef zeroext %2) local_unnamed_addr #0 {
  %calloc.i.i = tail call noalias noundef dereferenceable_or_null(40) ptr @calloc(i64 1, i64 40)
  %4 = icmp eq ptr %calloc.i.i, null
  br i1 %4, label %pmix_bfrops_base_tma_copy_dbuf.exit, label %5, !prof !43

5:                                                ; preds = %3
  store ptr %calloc.i.i, ptr %0, align 8, !tbaa !230
  %6 = tail call i32 @PMIx_Data_copy_payload(ptr noundef nonnull %calloc.i.i, ptr noundef %1) #23
  br label %pmix_bfrops_base_tma_copy_dbuf.exit

pmix_bfrops_base_tma_copy_dbuf.exit:              ; preds = %3, %5
  %.0.i = phi i32 [ %6, %5 ], [ -32, %3 ]
  ret i32 %.0.i
}